; Function Attrs: nounwind uwtable
define internal noundef ptr @lxb_html_tokenizer_state_script_data_double_escape_start(ptr nocapture noundef %0, ptr noundef %1, ptr noundef readnone %2) #1 {
  %4 = ptrtoint ptr %1 to i64
  %5 = getelementptr inbounds i8, ptr %0, i64 152
  store ptr %1, ptr %5, align 8
  %.not52 = icmp eq ptr %1, %2
  br i1 %.not52, label %._crit_edge, label %.lr.ph.preheader

.lr.ph.preheader:                                 ; preds = %3
  %6 = ptrtoint ptr %2 to i64
  %7 = sub i64 %6, %4
  %scevgep = getelementptr i8, ptr %1, i64 %7
  br label %.lr.ph

.lr.ph:                                           ; preds = %.lr.ph.preheader, %83
  %.02953 = phi ptr [ %84, %83 ], [ %1, %.lr.ph.preheader ]
  %8 = load i8, ptr %.02953, align 1
  switch i8 %8, label %50 [
    i8 9, label %9
    i8 10, label %9
    i8 12, label %9
    i8 13, label %9
    i8 32, label %9
    i8 47, label %9
    i8 62, label %9
  ]

9:                                                ; preds = %.lr.ph, %.lr.ph, %.lr.ph, %.lr.ph, %.lr.ph, %.lr.ph, %.lr.ph
  %10 = ptrtoint ptr %.02953 to i64
  %11 = sub i64 %10, %4
  %12 = getelementptr inbounds i8, ptr %0, i64 136
  %13 = load ptr, ptr %12, align 8
  %14 = getelementptr inbounds i8, ptr %13, i64 %11
  %15 = getelementptr inbounds i8, ptr %0, i64 144
  %16 = load ptr, ptr %15, align 8
  %17 = icmp ugt ptr %14, %16
  br i1 %17, label %18, label %33

18:                                               ; preds = %9
  %19 = getelementptr inbounds i8, ptr %0, i64 128
  %20 = load ptr, ptr %19, align 8
  %21 = ptrtoint ptr %20 to i64
  %22 = ptrtoint ptr %16 to i64
  %23 = add i64 %11, 4096
  %24 = add i64 %23, %22
  %25 = sub i64 %24, %21
  %26 = tail call ptr @lexbor_realloc(ptr noundef %20, i64 noundef %25) #6
  store ptr %26, ptr %19, align 8
  %27 = icmp eq ptr %26, null
  br i1 %27, label %lxb_html_tokenizer_temp_append_data.exit, label %lxb_html_tokenizer_temp_realloc.exit.thread.i

lxb_html_tokenizer_temp_realloc.exit.thread.i:    ; preds = %18
  %28 = ptrtoint ptr %13 to i64
  %29 = sub i64 %28, %21
  %30 = getelementptr inbounds i8, ptr %26, i64 %29
  store ptr %30, ptr %12, align 8
  %31 = getelementptr inbounds i8, ptr %26, i64 %25
  store ptr %31, ptr %15, align 8
  %.pre.i = load ptr, ptr %5, align 8
  br label %33

lxb_html_tokenizer_temp_append_data.exit:         ; preds = %18
  %32 = getelementptr inbounds i8, ptr %0, i64 232
  store i32 2, ptr %32, align 8
  br label %111

33:                                               ; preds = %9, %lxb_html_tokenizer_temp_realloc.exit.thread.i
  %34 = phi ptr [ %.pre.i, %lxb_html_tokenizer_temp_realloc.exit.thread.i ], [ %1, %9 ]
  %35 = phi ptr [ %30, %lxb_html_tokenizer_temp_realloc.exit.thread.i ], [ %13, %9 ]
  tail call void @llvm.memcpy.p0.p0.i64(ptr align 1 %35, ptr align 1 %34, i64 %11, i1 false)
  %36 = getelementptr inbounds i8, ptr %35, i64 %11
  store ptr %36, ptr %12, align 8
  %37 = getelementptr inbounds i8, ptr %0, i64 128
  %38 = load ptr, ptr %37, align 8
  %39 = getelementptr inbounds i8, ptr %0, i64 200
  %40 = load i64, ptr %39, align 8
  %41 = getelementptr inbounds i8, ptr %38, i64 %40
  %42 = ptrtoint ptr %36 to i64
  %43 = ptrtoint ptr %41 to i64
  %44 = sub i64 %42, %43
  %45 = icmp eq i64 %44, 6
  br i1 %45, label %46, label %49

46:                                               ; preds = %33
  %47 = tail call zeroext i1 @lexbor_str_data_ncasecmp(ptr noundef %41, ptr noundef nonnull @.str.6, i64 noundef 6) #6
  br i1 %47, label %48, label %49

48:                                               ; preds = %46
  store ptr @lxb_html_tokenizer_state_script_data_double_escaped, ptr %0, align 8
  br label %111

49:                                               ; preds = %46, %33
  store ptr @lxb_html_tokenizer_state_script_data_escaped, ptr %0, align 8
  br label %111

50:                                               ; preds = %.lr.ph
  %51 = zext i8 %8 to i64
  %52 = getelementptr inbounds [256 x i64], ptr @lexbor_str_res_alpha_character, i64 0, i64 %51
  %53 = load i64, ptr %52, align 8
  %54 = icmp eq i64 %53, 255
  br i1 %54, label %55, label %83

55:                                               ; preds = %50
  %56 = ptrtoint ptr %.02953 to i64
  %57 = sub i64 %56, %4
  %58 = getelementptr inbounds i8, ptr %0, i64 136
  %59 = load ptr, ptr %58, align 8
  %60 = getelementptr inbounds i8, ptr %59, i64 %57
  %61 = getelementptr inbounds i8, ptr %0, i64 144
  %62 = load ptr, ptr %61, align 8
  %63 = icmp ugt ptr %60, %62
  br i1 %63, label %64, label %79

64:                                               ; preds = %55
  %65 = getelementptr inbounds i8, ptr %0, i64 128
  %66 = load ptr, ptr %65, align 8
  %67 = ptrtoint ptr %66 to i64
  %68 = ptrtoint ptr %62 to i64
  %69 = add i64 %57, 4096
  %70 = add i64 %69, %68
  %71 = sub i64 %70, %67
  %72 = tail call ptr @lexbor_realloc(ptr noundef %66, i64 noundef %71) #6
  store ptr %72, ptr %65, align 8
  %73 = icmp eq ptr %72, null
  br i1 %73, label %lxb_html_tokenizer_temp_append_data.exit37, label %lxb_html_tokenizer_temp_realloc.exit.thread.i35

lxb_html_tokenizer_temp_realloc.exit.thread.i35:  ; preds = %64
  %74 = ptrtoint ptr %59 to i64
  %75 = sub i64 %74, %67
  %76 = getelementptr inbounds i8, ptr %72, i64 %75
  store ptr %76, ptr %58, align 8
  %77 = getelementptr inbounds i8, ptr %72, i64 %71
  store ptr %77, ptr %61, align 8
  %.pre.i36 = load ptr, ptr %5, align 8
  br label %79

lxb_html_tokenizer_temp_append_data.exit37:       ; preds = %64
  %78 = getelementptr inbounds i8, ptr %0, i64 232
  store i32 2, ptr %78, align 8
  br label %111

79:                                               ; preds = %55, %lxb_html_tokenizer_temp_realloc.exit.thread.i35
  %80 = phi ptr [ %.pre.i36, %lxb_html_tokenizer_temp_realloc.exit.thread.i35 ], [ %1, %55 ]
  %81 = phi ptr [ %76, %lxb_html_tokenizer_temp_realloc.exit.thread.i35 ], [ %59, %55 ]
  tail call void @llvm.memcpy.p0.p0.i64(ptr align 1 %81, ptr align 1 %80, i64 %57, i1 false)
  %82 = getelementptr inbounds i8, ptr %81, i64 %57
  store ptr %82, ptr %58, align 8
  store ptr @lxb_html_tokenizer_state_script_data_escaped, ptr %0, align 8
  br label %111

83:                                               ; preds = %50
  %84 = getelementptr inbounds i8, ptr %.02953, i64 1
  %.not = icmp eq ptr %84, %2
  br i1 %.not, label %._crit_edge.loopexit, label %.lr.ph

._crit_edge.loopexit:                             ; preds = %83
  %.pre = ptrtoint ptr %2 to i64
  br label %._crit_edge

._crit_edge:                                      ; preds = %._crit_edge.loopexit, %3
  %.pre-phi = phi i64 [ %.pre, %._crit_edge.loopexit ], [ %4, %3 ]
  %.029.lcssa = phi ptr [ %scevgep, %._crit_edge.loopexit ], [ %1, %3 ]
  %85 = sub i64 %.pre-phi, %4
  %86 = getelementptr inbounds i8, ptr %0, i64 136
  %87 = load ptr, ptr %86, align 8
  %88 = getelementptr inbounds i8, ptr %87, i64 %85
  %89 = getelementptr inbounds i8, ptr %0, i64 144
  %90 = load ptr, ptr %89, align 8
  %91 = icmp ugt ptr %88, %90
  br i1 %91, label %92, label %107

92:                                               ; preds = %._crit_edge
  %93 = getelementptr inbounds i8, ptr %0, i64 128
  %94 = load ptr, ptr %93, align 8
  %95 = ptrtoint ptr %94 to i64
  %96 = ptrtoint ptr %90 to i64
  %97 = add i64 %85, 4096
  %98 = add i64 %97, %96
  %99 = sub i64 %98, %95
  %100 = tail call ptr @lexbor_realloc(ptr noundef %94, i64 noundef %99) #6
  store ptr %100, ptr %93, align 8
  %101 = icmp eq ptr %100, null
  br i1 %101, label %lxb_html_tokenizer_temp_append_data.exit41, label %lxb_html_tokenizer_temp_realloc.exit.thread.i39

lxb_html_tokenizer_temp_realloc.exit.thread.i39:  ; preds = %92
  %102 = ptrtoint ptr %87 to i64
  %103 = sub i64 %102, %95
  %104 = getelementptr inbounds i8, ptr %100, i64 %103
  store ptr %104, ptr %86, align 8
  %105 = getelementptr inbounds i8, ptr %100, i64 %99
  store ptr %105, ptr %89, align 8
  %.pre.i40 = load ptr, ptr %5, align 8
  br label %107

lxb_html_tokenizer_temp_append_data.exit41:       ; preds = %92
  %106 = getelementptr inbounds i8, ptr %0, i64 232
  store i32 2, ptr %106, align 8
  br label %111

107:                                              ; preds = %._crit_edge, %lxb_html_tokenizer_temp_realloc.exit.thread.i39
  %108 = phi ptr [ %.pre.i40, %lxb_html_tokenizer_temp_realloc.exit.thread.i39 ], [ %1, %._crit_edge ]
  %109 = phi ptr [ %104, %lxb_html_tokenizer_temp_realloc.exit.thread.i39 ], [ %87, %._crit_edge ]
  tail call void @llvm.memcpy.p0.p0.i64(ptr align 1 %109, ptr align 1 %108, i64 %85, i1 false)
  %110 = getelementptr inbounds i8, ptr %109, i64 %85
  store ptr %110, ptr %86, align 8
  br label %111

111:                                              ; preds = %107, %lxb_html_tokenizer_temp_append_data.exit41, %lxb_html_tokenizer_temp_append_data.exit37, %lxb_html_tokenizer_temp_append_data.exit, %79, %49, %48
  %.0 = phi ptr [ %.02953, %79 ], [ %.02953, %48 ], [ %.02953, %49 ], [ %2, %lxb_html_tokenizer_temp_append_data.exit ], [ %2, %lxb_html_tokenizer_temp_append_data.exit37 ], [ %.029.lcssa, %107 ], [ %2, %lxb_html_tokenizer_temp_append_data.exit41 ]
  ret ptr %.0
}